EXPROTS
??0Database@@QAE@ABV0@@Z
??0Database@@QAE@XZ
??0Record@@QAE@ABV0@@Z
??0Record@@QAE@XZ
??0Table@@QAE@ABV0@@Z
??0Table@@QAE@V?$vector@V?$basic_string@DU?$char_traits@D@std@@V?$allocator@D@2@@std@@V?$allocator@V?$basic_string@DU?$char_traits@D@std@@V?$allocator@D@2@@std@@@2@@std@@@Z
??0Table@@QAE@XZ
??1Database@@QAE@XZ
??1Record@@QAE@XZ
??1Table@@QAE@XZ
??4Database@@QAEAAV0@ABV0@@Z
??4Table@@QAEAAV0@ABV0@@Z
??ARecord@@QAEAAV?$basic_string@DU?$char_traits@D@std@@V?$allocator@D@2@@std@@H@Z
?Querry@Database@@QAE?AVTable@@V?$basic_string@DU?$char_traits@D@std@@V?$allocator@D@2@@std@@00@Z
?__autoclassinit2@Database@@QAEXI@Z
?__autoclassinit2@Record@@QAEXI@Z
?__autoclassinit2@Table@@QAEXI@Z
?addAttribute@Table@@QAEXAAV?$basic_string@DU?$char_traits@D@std@@V?$allocator@D@2@@std@@@Z
?addTable@Database@@QAEXAAVTable@@ABV?$basic_string@DU?$char_traits@D@std@@V?$allocator@D@2@@std@@@Z
?crossJoin@Table@@QAE?AV1@PBV1@0@Z
?deleteAttribute@Table@@QAEXAAV?$basic_string@DU?$char_traits@D@std@@V?$allocator@D@2@@std@@@Z
?dropTable@Database@@QAEXABV?$basic_string@DU?$char_traits@D@std@@V?$allocator@D@2@@std@@@Z
?findRoutine@Table@@QAE?AV?$tuple@V?$basic_string@DU?$char_traits@D@std@@V?$allocator@D@2@@std@@V12@V12@@std@@ABV?$basic_string@DU?$char_traits@D@std@@V?$allocator@D@2@@3@@Z
?getAttributeNames@Table@@QAE?AV?$vector@V?$basic_string@DU?$char_traits@D@std@@V?$allocator@D@2@@std@@V?$allocator@V?$basic_string@DU?$char_traits@D@std@@V?$allocator@D@2@@std@@@2@@std@@XZ
?getRecordSize@Record@@QAEHXZ
?getTableKey@Table@@QBE?AV?$basic_string@DU?$char_traits@D@std@@V?$allocator@D@2@@std@@XZ
?getTableSize@Table@@QAEHXZ
?getTables@Database@@QAE?AV?$vector@PAVTable@@V?$allocator@PAVTable@@@std@@@std@@XZ
?insertRecord@Table@@QAEXAAVRecord@@@Z
?listTables@Database@@QAE?AV?$vector@V?$basic_string@DU?$char_traits@D@std@@V?$allocator@D@2@@std@@V?$allocator@V?$basic_string@DU?$char_traits@D@std@@V?$allocator@D@2@@std@@@2@@std@@XZ
?naturalJoin@Table@@QAE?AV1@PBV1@0@Z
?specifyKey@Table@@QAEXABV?$basic_string@DU?$char_traits@D@std@@V?$allocator@D@2@@std@@@Z